Certificate:
    Data:
        Version: 3 (0x2)
        Serial Number: 1 (0x1)
        Signature Algorithm: sha256WithRSAEncryption
        Issuer: C=RU, ST=Moscow, L=Moscow, O=anyks.com, Inc, OU=ANYKS, CN=dtls-ca.anyks.com
        Validity
            Not Before: Dec 24 13:20:55 2023 GMT
            Not After : Dec 23 13:20:55 2024 GMT
        Subject: C=RU, ST=Moscow, L=Moscow, O=anyks.com, Inc, OU=ANYKS, CN=dtls-server.anyks.com
        Subject Public Key Info:
            Public Key Algorithm: rsaEncryption
                Public-Key: (2048 bit)
                Modulus:
                    00:e5:cc:ae:2e:da:78:67:f5:62:e5:47:ba:3e:2c:
                    69:2a:6e:98:2d:1f:b7:ef:1b:1b:c9:ad:d7:6a:40:
                    e9:41:84:68:fa:26:88:75:19:78:f5:c3:b9:b0:de:
                    70:f9:18:ff:62:98:23:c5:39:28:e8:eb:84:97:09:
                    74:77:70:f9:27:6a:ea:c4:55:d1:bc:15:e6:27:29:
                    7b:79:ce:6d:08:6c:b9:3f:59:fe:86:15:98:1c:20:
                    cb:8d:d8:54:1b:3d:b2:af:6f:3e:a5:1d:09:97:df:
                    01:87:dd:c9:7f:bb:b2:2d:20:94:3a:6a:29:a0:21:
                    39:32:d7:7f:d7:ce:9f:8c:d8:3b:48:02:d3:cb:b6:
                    ad:b0:bd:a9:2f:0f:68:db:8e:6f:cc:ad:18:e6:42:
                    e7:02:c6:64:c6:7c:af:96:62:8c:fd:6e:57:95:82:
                    1d:50:fc:3f:1f:ab:1c:f6:db:22:58:57:8c:40:57:
                    dc:19:a2:37:ae:76:29:0b:a4:e3:25:35:06:ba:6c:
                    b6:70:65:08:6b:7d:c7:72:26:4e:14:b5:e2:ff:3e:
                    92:32:c7:8c:62:a2:0e:be:23:ae:d0:01:f4:af:1e:
                    e8:5f:40:51:a5:c8:0a:83:12:2c:6e:bd:e0:db:a5:
                    a2:6c:b7:75:21:99:94:bd:94:c6:68:f6:05:8e:cd:
                    16:a5
                Exponent: 65537 (0x10001)
        X509v3 extensions:
            X509v3 Subject Key Identifier: 
                6D:09:12:20:0C:E5:40:47:33:45:87:B2:DA:A6:27:F3:E8:5D:6C:0E
            X509v3 Authority Key Identifier: 
                AD:C3:6A:83:07:43:4C:5C:48:D3:0A:B4:AA:01:3B:BA:2A:C5:57:D0
    Signature Algorithm: sha256WithRSAEncryption
    Signature Value:
        2e:23:87:1a:f8:10:c4:84:c0:52:dc:7c:13:08:76:a3:26:7f:
        48:75:64:03:b0:a9:b7:5f:8e:dc:d8:aa:ef:b8:40:fc:b2:31:
        06:44:5c:f4:7a:6f:e6:e6:78:32:18:7b:05:51:c3:ed:89:ea:
        32:87:fe:1d:82:d2:fb:b4:a9:24:e8:44:a8:32:cf:8c:c8:e0:
        bf:6f:6d:8f:4a:c9:4f:9f:ee:29:56:b9:6f:92:7a:97:e6:9b:
        77:38:81:8c:2d:22:5e:cf:90:de:f7:c8:fe:63:0a:6c:f0:2a:
        c7:0c:67:cf:eb:12:93:e9:b5:d4:40:7c:9b:88:f6:18:18:87:
        c8:21:01:42:85:03:b5:b9:85:47:14:85:14:ee:a8:01:aa:e2:
        12:8b:d0:d2:8e:f4:54:46:0a:8c:9b:44:c3:dd:54:92:90:cc:
        29:3c:18:a4:40:9f:72:71:36:4c:6b:bc:0d:b4:62:72:eb:84:
        4d:7d:e5:a9:02:0a:c5:da:ad:d1:40:f4:ad:81:6e:0f:3f:ab:
        a8:9a:16:5e:1f:e0:3c:aa:bc:3d:e8:b7:fa:ae:44:d1:3f:62:
        31:12:c1:17:63:93:6c:3a:01:d5:60:52:8f:fc:07:90:9b:f1:
        7e:87:3d:20:41:f6:64:11:e2:d4:04:d9:3d:01:14:7b:2c:7a:
        13:c3:f2:db
-----BEGIN CERTIFICATE-----
MIIDqTCCApGgAwIBAgIBATANBgkqhkiG9w0BAQsFADB0MQswCQYDVQQGEwJSVTEP
MA0GA1UECAwGTW9zY293MQ8wDQYDVQQHDAZNb3Njb3cxFzAVBgNVBAoMDmFueWtz
LmNvbSwgSW5jMQ4wDAYDVQQLDAVBTllLUzEaMBgGA1UEAwwRZHRscy1jYS5hbnlr
cy5jb20wHhcNMjMxMjI0MTMyMDU1WhcNMjQxMjIzMTMyMDU1WjB4MQswCQYDVQQG
EwJSVTEPMA0GA1UECAwGTW9zY293MQ8wDQYDVQQHDAZNb3Njb3cxFzAVBgNVBAoM
DmFueWtzLmNvbSwgSW5jMQ4wDAYDVQQLDAVBTllLUzEeMBwGA1UEAwwVZHRscy1z
ZXJ2ZXIuYW55a3MuY29tMIIBIjANBgkqhkiG9w0BAQEFAAOCAQ8AMIIBCgKCAQEA
5cyuLtp4Z/Vi5Ue6PixpKm6YLR+37xsbya3XakDpQYRo+iaIdRl49cO5sN5w+Rj/
YpgjxTko6OuElwl0d3D5J2rqxFXRvBXmJyl7ec5tCGy5P1n+hhWYHCDLjdhUGz2y
r28+pR0Jl98Bh93Jf7uyLSCUOmopoCE5Mtd/186fjNg7SALTy7atsL2pLw9o245v
zK0Y5kLnAsZkxnyvlmKM/W5XlYIdUPw/H6sc9tsiWFeMQFfcGaI3rnYpC6TjJTUG
umy2cGUIa33HciZOFLXi/z6SMseMYqIOviOu0AH0rx7oX0BRpcgKgxIsbr3g26Wi
bLd1IZmUvZTGaPYFjs0WpQIDAQABo0IwQDAdBgNVHQ4EFgQUbQkSIAzlQEczRYey
2qYn8+hdbA4wHwYDVR0jBBgwFoAUrcNqgwdDTFxI0wq0qgE7uirFV9AwDQYJKoZI
hvcNAQELBQADggEBAC4jhxr4EMSEwFLcfBMIdqMmf0h1ZAOwqbdfjtzYqu+4QPyy
MQZEXPR6b+bmeDIYewVRw+2J6jKH/h2C0vu0qSToRKgyz4zI4L9vbY9KyU+f7ilW
uW+Sepfmm3c4gYwtIl7PkN73yP5jCmzwKscMZ8/rEpPptdRAfJuI9hgYh8ghAUKF
A7W5hUcUhRTuqAGq4hKL0NKO9FRGCoybRMPdVJKQzCk8GKRAn3JxNkxrvA20YnLr
hE195akCCsXardFA9K2Bbg8/q6iaFl4f4DyqvD3ot/quRNE/YjESwRdjk2w6AdVg
Uo/8B5Cb8X6HPSBB9mQR4tQE2T0BFHssehPD8ts=
-----END CERTIFICATE-----
