Certificate:
    Data:
        Version: 1 (0x0)
        Serial Number: 2 (0x2)
        Signature Algorithm: sha256WithRSAEncryption
        Issuer: C=DE, ST=NW, L=Steinfurt, O=FH-Muenster, OU=NPLAB, CN=dtls-ca.nplab.de
        Validity
            Not Before: Aug  4 11:19:39 2022 GMT
            Not After : Aug  4 11:19:39 2023 GMT
        Subject: C=DE, ST=NW, L=Steinfurt, O=FH-Muenster, OU=NPLAB, CN=dtls-client.nplab.de
        Subject Public Key Info:
            Public Key Algorithm: rsaEncryption
                Public-Key: (2048 bit)
                Modulus:
                    00:90:8f:b4:9e:41:35:c6:39:aa:d7:f6:13:e9:11:
                    3a:42:70:7e:99:24:2a:87:27:3b:84:a3:df:3f:09:
                    8d:0f:b0:4f:94:3f:62:9f:6d:fc:b3:fc:3f:04:a8:
                    a8:24:df:b1:30:3a:e6:52:5c:72:c1:b5:66:ab:f4:
                    89:de:0c:aa:2b:77:a1:3a:68:7a:4d:60:1e:4b:a7:
                    d4:21:69:54:1a:c6:ff:ee:3e:29:64:ed:fe:8d:ea:
                    a0:83:e2:1c:ed:ba:a4:fc:57:73:1e:b9:c3:60:54:
                    e0:96:c2:ae:ab:97:ae:05:db:70:4c:3d:68:dc:e4:
                    50:85:25:fb:31:a7:b1:74:d9:35:af:41:17:6f:b7:
                    ca:13:2a:74:de:c8:96:66:d4:17:5e:27:aa:93:10:
                    20:05:2b:b6:96:df:a9:43:ab:b7:43:0c:65:f4:04:
                    f7:35:b3:a5:ef:23:ee:e8:de:39:9a:2d:1d:e2:41:
                    23:71:08:cf:26:1e:a3:e6:a4:41:b4:73:cd:a1:01:
                    4c:7a:89:58:76:98:ce:7f:bc:c9:79:07:9a:04:70:
                    af:4c:c6:69:df:f7:90:80:dd:2b:c5:3a:6c:24:c4:
                    ad:c0:38:bc:a2:31:69:56:2e:47:b0:ab:32:b5:0f:
                    e0:ad:9a:d2:42:c3:da:11:d2:34:52:8b:43:01:5b:
                    17:81
                Exponent: 65537 (0x10001)
    Signature Algorithm: sha256WithRSAEncryption
    Signature Value:
        9b:cf:90:d1:ea:19:45:2c:8a:46:73:ce:c2:0e:43:4a:d7:d4:
        12:2a:74:e8:c8:fa:54:35:2a:bf:70:29:cc:3c:5c:bf:60:8f:
        89:69:f5:b2:21:97:88:1b:81:14:51:42:64:4d:70:2a:7f:74:
        33:c4:77:17:20:94:01:1d:6b:fb:b6:83:ed:a7:bd:d9:9e:17:
        59:e8:ec:2e:08:99:a4:1e:1a:31:a0:2f:7a:c4:25:25:8e:5b:
        a3:2e:19:d2:62:cc:61:4e:d7:07:11:83:91:35:5b:a8:36:fb:
        74:c1:d6:84:a3:4a:1b:1e:c3:16:70:22:3c:42:7f:61:be:d0:
        66:c5:91:75:ca:1f:53:97:4e:79:5a:9d:10:61:a9:43:a4:d4:
        28:ab:e7:91:f8:96:1f:0e:a5:eb:30:4f:c6:bb:3d:f0:3b:6f:
        c8:4b:36:ea:f0:22:bf:7e:b3:dd:98:a6:59:aa:b1:2a:1e:7b:
        47:f3:d3:cf:c1:ab:db:de:94:48:b7:cc:a6:3c:8a:96:75:4f:
        3c:ad:2f:d0:d0:cf:02:24:80:ea:88:79:3d:08:c2:65:a3:99:
        37:58:f9:20:a9:d6:3b:bf:1c:c2:0d:44:e8:69:b5:d6:f7:09:
        fc:bf:eb:84:a8:b9:a4:12:34:ae:b3:03:11:8c:fc:79:16:22:
        f1:85:a7:80
-----BEGIN CERTIFICATE-----
MIIDVjCCAj4CAQIwDQYJKoZIhvcNAQELBQAwbzELMAkGA1UEBhMCREUxCzAJBgNV
BAgMAk5XMRIwEAYDVQQHDAlTdGVpbmZ1cnQxFDASBgNVBAoMC0ZILU11ZW5zdGVy
MQ4wDAYDVQQLDAVOUExBQjEZMBcGA1UEAwwQZHRscy1jYS5ucGxhYi5kZTAeFw0y
MjA4MDQxMTE5MzlaFw0yMzA4MDQxMTE5MzlaMHMxCzAJBgNVBAYTAkRFMQswCQYD
VQQIDAJOVzESMBAGA1UEBwwJU3RlaW5mdXJ0MRQwEgYDVQQKDAtGSC1NdWVuc3Rl
cjEOMAwGA1UECwwFTlBMQUIxHTAbBgNVBAMMFGR0bHMtY2xpZW50Lm5wbGFiLmRl
MIIBIjANBgkqhkiG9w0BAQEFAAOCAQ8AMIIBCgKCAQEAkI+0nkE1xjmq1/YT6RE6
QnB+mSQqhyc7hKPfPwmND7BPlD9in238s/w/BKioJN+xMDrmUlxywbVmq/SJ3gyq
K3ehOmh6TWAeS6fUIWlUGsb/7j4pZO3+jeqgg+Ic7bqk/FdzHrnDYFTglsKuq5eu
BdtwTD1o3ORQhSX7MaexdNk1r0EXb7fKEyp03siWZtQXXieqkxAgBSu2lt+pQ6u3
Qwxl9AT3NbOl7yPu6N45mi0d4kEjcQjPJh6j5qRBtHPNoQFMeolYdpjOf7zJeQea
BHCvTMZp3/eQgN0rxTpsJMStwDi8ojFpVi5HsKsytQ/grZrSQsPaEdI0UotDAVsX
gQIDAQABMA0GCSqGSIb3DQEBCwUAA4IBAQCbz5DR6hlFLIpGc87CDkNK19QSKnTo
yPpUNSq/cCnMPFy/YI+JafWyIZeIG4EUUUJkTXAqf3QzxHcXIJQBHWv7toPtp73Z
nhdZ6OwuCJmkHhoxoC96xCUljlujLhnSYsxhTtcHEYORNVuoNvt0wdaEo0obHsMW
cCI8Qn9hvtBmxZF1yh9Tl055Wp0QYalDpNQoq+eR+JYfDqXrME/Guz3wO2/ISzbq
8CK/frPdmKZZqrEqHntH89PPwavb3pRIt8ymPIqWdU88rS/Q0M8CJIDqiHk9CMJl
o5k3WPkgqdY7vxzCDUToabXW9wn8v+uEqLmkEjSuswMRjPx5FiLxhaeA
-----END CERTIFICATE-----
