Certificate:
    Data:
        Version: 1 (0x0)
        Serial Number: 1 (0x1)
        Signature Algorithm: sha256WithRSAEncryption
        Issuer: C=DE, ST=NW, L=Steinfurt, O=FH-Muenster, OU=NPLAB, CN=dtls-ca.nplab.de
        Validity
            Not Before: Aug  4 11:19:32 2022 GMT
            Not After : Aug  4 11:19:32 2023 GMT
        Subject: C=DE, ST=NW, L=Steinfurt, O=FH-Muenster, OU=NPLAB, CN=dtls-server.nplab.de
        Subject Public Key Info:
            Public Key Algorithm: rsaEncryption
                Public-Key: (2048 bit)
                Modulus:
                    00:bc:d8:b7:c9:6d:ff:ed:9f:91:d6:0b:4a:73:c7:
                    b1:05:08:02:c9:60:e9:67:37:6e:ec:fd:c2:25:46:
                    ba:cf:06:4c:67:ec:0f:98:93:00:f1:58:26:57:13:
                    76:eb:41:ba:3b:33:1e:be:34:c7:01:d6:1a:b9:b7:
                    ab:76:5a:7a:db:7b:5f:86:fb:d3:07:8c:80:a4:5e:
                    6a:02:08:8e:5a:e0:56:45:f7:0b:d3:b8:9e:d4:39:
                    22:55:b6:ea:5e:ca:25:cc:4e:94:b2:f4:f7:8d:0a:
                    e2:cc:84:ec:30:6c:db:c3:7b:b4:26:52:22:b2:9e:
                    26:26:3d:cd:e7:c7:7c:5e:03:ad:0c:42:05:f2:a2:
                    04:b7:ba:51:80:f6:46:45:17:56:f1:91:74:f0:f4:
                    82:95:a4:e8:e5:4a:8b:11:94:00:7d:af:08:c2:20:
                    ed:a0:58:a4:f8:64:bb:d3:60:f1:03:83:c1:4f:d5:
                    a9:a0:8e:c5:e1:7a:69:8a:ad:05:41:e4:e3:97:1e:
                    48:49:b3:06:42:3d:09:1c:e7:95:04:16:f7:94:d8:
                    50:a3:bd:55:f3:53:b5:e5:e2:7e:00:73:6c:80:e7:
                    db:e8:42:52:f1:4f:61:40:37:9e:7a:7f:26:00:e9:
                    0b:05:9b:ba:8d:3e:4f:f9:c3:8d:e9:08:bb:a3:ab:
                    46:63
                Exponent: 65537 (0x10001)
    Signature Algorithm: sha256WithRSAEncryption
    Signature Value:
        27:72:e5:e2:dc:45:7b:af:6a:f0:f5:0f:36:aa:84:b7:57:b8:
        8a:d8:8c:fd:2c:d0:10:91:ab:2d:48:ed:78:a3:64:4b:30:de:
        0d:6a:4e:cb:cb:de:a9:57:f0:33:be:ba:dc:78:4b:c4:29:7d:
        c8:89:01:61:20:0d:fa:ff:5c:04:1b:e9:43:60:59:af:a6:dd:
        25:20:97:36:0f:dc:7d:25:76:20:9b:39:1c:3a:cf:c5:42:80:
        29:06:b3:45:9f:75:2c:3c:cc:90:dd:d9:2f:a4:66:ce:98:87:
        9e:ac:b2:28:d6:ff:a2:8c:47:90:f4:3b:85:cc:78:44:0f:b6:
        d5:8e:f4:08:fe:af:c4:d2:53:56:3b:0c:b0:1d:33:c6:ee:27:
        59:86:e0:07:07:a6:6a:51:bd:ff:c4:4e:1f:01:b5:e2:01:e0:
        1b:d5:a4:fb:fe:7b:f0:56:06:7b:74:e4:fc:57:a5:64:7c:02:
        8b:28:3d:5c:54:f2:39:df:20:5c:2f:c2:2c:a4:0e:04:3a:33:
        e3:2c:81:92:4c:d9:a6:34:cb:f9:f5:07:13:cc:c5:3f:be:c5:
        3d:17:69:15:eb:23:fa:e1:9b:12:84:25:ea:91:cf:d7:f2:6b:
        8a:0a:21:c0:d7:50:60:40:50:92:3e:f9:5a:12:d5:6e:d2:af:
        57:b7:93:1e
-----BEGIN CERTIFICATE-----
MIIDVjCCAj4CAQEwDQYJKoZIhvcNAQELBQAwbzELMAkGA1UEBhMCREUxCzAJBgNV
BAgMAk5XMRIwEAYDVQQHDAlTdGVpbmZ1cnQxFDASBgNVBAoMC0ZILU11ZW5zdGVy
MQ4wDAYDVQQLDAVOUExBQjEZMBcGA1UEAwwQZHRscy1jYS5ucGxhYi5kZTAeFw0y
MjA4MDQxMTE5MzJaFw0yMzA4MDQxMTE5MzJaMHMxCzAJBgNVBAYTAkRFMQswCQYD
VQQIDAJOVzESMBAGA1UEBwwJU3RlaW5mdXJ0MRQwEgYDVQQKDAtGSC1NdWVuc3Rl
cjEOMAwGA1UECwwFTlBMQUIxHTAbBgNVBAMMFGR0bHMtc2VydmVyLm5wbGFiLmRl
MIIBIjANBgkqhkiG9w0BAQEFAAOCAQ8AMIIBCgKCAQEAvNi3yW3/7Z+R1gtKc8ex
BQgCyWDpZzdu7P3CJUa6zwZMZ+wPmJMA8VgmVxN260G6OzMevjTHAdYauberdlp6
23tfhvvTB4yApF5qAgiOWuBWRfcL07ie1DkiVbbqXsolzE6UsvT3jQrizITsMGzb
w3u0JlIisp4mJj3N58d8XgOtDEIF8qIEt7pRgPZGRRdW8ZF08PSClaTo5UqLEZQA
fa8IwiDtoFik+GS702DxA4PBT9WpoI7F4Xppiq0FQeTjlx5ISbMGQj0JHOeVBBb3
lNhQo71V81O15eJ+AHNsgOfb6EJS8U9hQDeeen8mAOkLBZu6jT5P+cON6Qi7o6tG
YwIDAQABMA0GCSqGSIb3DQEBCwUAA4IBAQAncuXi3EV7r2rw9Q82qoS3V7iK2Iz9
LNAQkastSO14o2RLMN4Nak7Ly96pV/AzvrrceEvEKX3IiQFhIA36/1wEG+lDYFmv
pt0lIJc2D9x9JXYgmzkcOs/FQoApBrNFn3UsPMyQ3dkvpGbOmIeerLIo1v+ijEeQ
9DuFzHhED7bVjvQI/q/E0lNWOwywHTPG7idZhuAHB6ZqUb3/xE4fAbXiAeAb1aT7
/nvwVgZ7dOT8V6VkfAKLKD1cVPI53yBcL8IspA4EOjPjLIGSTNmmNMv59QcTzMU/
vsU9F2kV6yP64ZsShCXqkc/X8muKCiHA11BgQFCSPvlaEtVu0q9Xt5Me
-----END CERTIFICATE-----
