Certificate:
    Data:
        Version: 1 (0x0)
        Serial Number: 2 (0x2)
        Signature Algorithm: sha256WithRSAEncryption
        Issuer: C=RU, ST=Moscow, L=Moscow, O=anyks.com, Inc, OU=ANYKS, CN=dtls-ca.anyks.com
        Validity
            Not Before: Oct 15 22:56:58 2023 GMT
            Not After : Oct 14 22:56:58 2024 GMT
        Subject: C=RU, ST=Moscow, L=Moscow, O=anyks.com, Inc, OU=ANYKS, CN=dtls-client.anyks.com
        Subject Public Key Info:
            Public Key Algorithm: rsaEncryption
                Public-Key: (2048 bit)
                Modulus:
                    00:b5:30:22:d9:f6:37:11:80:d6:20:79:92:1a:c8:
                    61:86:7e:da:c9:ee:3b:b2:10:c3:ba:1f:70:6d:87:
                    9f:bf:f4:5b:0c:28:91:1d:c2:5c:5e:58:3e:99:a8:
                    33:d1:91:77:59:4e:fc:14:ff:e7:d3:3f:b7:8e:35:
                    c6:46:3c:72:2e:0e:2c:76:dd:1e:f8:2f:8f:6d:0a:
                    25:d8:a2:47:83:83:ed:0d:70:6a:65:98:9c:e8:32:
                    ac:6a:f2:c5:7f:8b:c9:c7:94:3b:05:8a:b3:44:c3:
                    85:f5:65:70:4c:df:6b:3d:87:d0:93:bc:a9:2b:42:
                    94:13:2e:b9:be:48:fc:c9:b3:36:53:d4:b4:5c:87:
                    d6:9e:76:f6:57:26:96:e9:dc:c0:f7:5c:16:e3:00:
                    84:03:fe:d3:30:78:8c:4d:ca:1d:67:e9:75:38:84:
                    b8:f3:2c:d7:5c:32:48:c2:5d:77:2e:3e:2b:81:40:
                    30:c3:59:71:8b:37:56:0b:c7:60:79:7f:29:62:85:
                    09:16:98:3a:03:cf:28:7c:19:7b:44:9b:05:04:cf:
                    1d:3d:f3:ad:2d:2f:90:5e:55:bc:3e:a6:39:e7:90:
                    8f:58:96:e8:94:42:73:84:ce:2d:85:e4:9a:44:7c:
                    b5:a0:fb:02:e2:00:2c:7c:3f:64:af:e8:87:a8:87:
                    f6:39
                Exponent: 65537 (0x10001)
    Signature Algorithm: sha256WithRSAEncryption
    Signature Value:
        76:e0:01:92:a6:50:56:46:18:64:0e:cb:df:d1:0f:58:4e:1f:
        50:d4:6c:b6:88:d0:24:82:e1:a2:1d:f0:88:c5:9d:79:39:94:
        91:45:a0:30:96:e7:b0:41:8f:f0:48:36:3d:59:c0:ca:bd:54:
        53:73:09:18:61:73:f4:65:23:38:dd:7b:17:fd:61:55:b4:8c:
        79:f1:5b:7f:32:fb:94:aa:92:eb:39:3d:10:d6:a2:fb:a9:5b:
        25:73:7d:f2:2d:69:8b:7f:4b:34:1f:5e:c4:9c:ca:ea:d9:cf:
        f4:87:4a:20:22:15:f9:18:b7:ba:88:20:a8:b0:2f:89:fc:c5:
        20:a2:eb:d8:af:13:6b:ad:fc:72:07:a2:54:c0:71:c9:6d:00:
        c9:d7:4b:c6:3a:e4:cc:47:b3:c5:40:15:c1:e8:1d:6b:d9:ae:
        40:a6:f4:18:93:9b:62:84:da:34:8d:7e:ea:81:85:23:3b:f7:
        af:ca:1e:2d:fd:57:9d:5a:ec:72:81:e4:30:a4:f4:38:31:e9:
        c9:b8:e2:61:15:b8:4a:82:09:75:a3:5f:cf:20:a8:f4:b4:21:
        00:e8:ee:88:88:9c:fd:87:0b:87:ad:51:3d:e7:f1:31:62:a6:
        72:2e:a1:76:11:85:8d:79:c2:8f:14:94:1e:ba:ce:8a:a7:ff:
        0e:33:6d:b7
-----BEGIN CERTIFICATE-----
MIIDYDCCAkgCAQIwDQYJKoZIhvcNAQELBQAwdDELMAkGA1UEBhMCUlUxDzANBgNV
BAgMBk1vc2NvdzEPMA0GA1UEBwwGTW9zY293MRcwFQYDVQQKDA5hbnlrcy5jb20s
IEluYzEOMAwGA1UECwwFQU5ZS1MxGjAYBgNVBAMMEWR0bHMtY2EuYW55a3MuY29t
MB4XDTIzMTAxNTIyNTY1OFoXDTI0MTAxNDIyNTY1OFoweDELMAkGA1UEBhMCUlUx
DzANBgNVBAgMBk1vc2NvdzEPMA0GA1UEBwwGTW9zY293MRcwFQYDVQQKDA5hbnlr
cy5jb20sIEluYzEOMAwGA1UECwwFQU5ZS1MxHjAcBgNVBAMMFWR0bHMtY2xpZW50
LmFueWtzLmNvbTCCASIwDQYJKoZIhvcNAQEBBQADggEPADCCAQoCggEBALUwItn2
NxGA1iB5khrIYYZ+2snuO7IQw7ofcG2Hn7/0WwwokR3CXF5YPpmoM9GRd1lO/BT/
59M/t441xkY8ci4OLHbdHvgvj20KJdiiR4OD7Q1wamWYnOgyrGryxX+LyceUOwWK
s0TDhfVlcEzfaz2H0JO8qStClBMuub5I/MmzNlPUtFyH1p529lcmluncwPdcFuMA
hAP+0zB4jE3KHWfpdTiEuPMs11wySMJddy4+K4FAMMNZcYs3VgvHYHl/KWKFCRaY
OgPPKHwZe0SbBQTPHT3zrS0vkF5VvD6mOeeQj1iW6JRCc4TOLYXkmkR8taD7AuIA
LHw/ZK/oh6iH9jkCAwEAATANBgkqhkiG9w0BAQsFAAOCAQEAduABkqZQVkYYZA7L
39EPWE4fUNRstojQJILhoh3wiMWdeTmUkUWgMJbnsEGP8Eg2PVnAyr1UU3MJGGFz
9GUjON17F/1hVbSMefFbfzL7lKqS6zk9ENai+6lbJXN98i1pi39LNB9exJzK6tnP
9IdKICIV+Ri3uoggqLAvifzFIKLr2K8Ta638cgeiVMBxyW0AyddLxjrkzEezxUAV
wegda9muQKb0GJObYoTaNI1+6oGFIzv3r8oeLf1XnVrscoHkMKT0ODHpybjiYRW4
SoIJdaNfzyCo9LQhAOjuiIic/YcLh61RPefxMWKmci6hdhGFjXnCjxSUHrrOiqf/
DjNttw==
-----END CERTIFICATE-----
