Certificate:
    Data:
        Version: 1 (0x0)
        Serial Number: 2 (0x2)
        Signature Algorithm: sha256WithRSAEncryption
        Issuer: C=RU, ST=Moscow, L=Moscow, O=anyks.com, Inc, OU=ANYKS, CN=dtls-ca.anyks.com
        Validity
            Not Before: Sep  4 15:17:18 2022 GMT
            Not After : Sep  4 15:17:18 2023 GMT
        Subject: C=RU, ST=Moscow, L=Moscow, O=anyks.com, Inc, OU=ANYKS, CN=dtls-client.anyks.com
        Subject Public Key Info:
            Public Key Algorithm: rsaEncryption
                RSA Public-Key: (2048 bit)
                Modulus:
                    00:e7:e8:fb:66:aa:69:d5:e1:ab:1a:45:8f:eb:61:
                    ac:75:32:ae:83:ec:e6:0c:df:be:41:70:86:6c:ac:
                    02:15:16:70:aa:52:3d:39:0d:24:dc:a7:b6:3e:dc:
                    f0:42:36:bf:a9:ca:54:05:57:01:03:02:17:02:3c:
                    58:33:c5:1d:92:ef:6f:79:bf:3e:6c:18:a3:53:49:
                    72:dd:19:65:b7:53:cf:44:1e:36:a4:3e:4a:ce:10:
                    77:06:40:94:84:02:04:a1:55:d6:b9:3f:22:c4:e1:
                    67:57:ab:b6:76:3d:f8:d0:5c:83:c8:07:50:a6:36:
                    c5:0d:d0:71:1b:2e:4b:71:69:81:76:f9:ef:bb:04:
                    e3:64:03:c6:f0:5b:80:49:24:a2:da:99:bf:a7:be:
                    61:79:2b:7c:cb:a2:85:4f:09:8f:9d:d3:2a:84:ec:
                    67:87:64:73:72:b1:e2:18:2a:f5:e5:8b:16:6e:5f:
                    15:df:8d:e3:01:2b:31:22:ca:fa:07:da:39:29:f3:
                    d7:b5:93:05:e1:40:1e:a7:06:f8:9e:5b:ec:24:3f:
                    7e:67:c5:60:62:1d:50:bd:fb:cd:67:0d:de:03:51:
                    83:da:b3:5f:95:10:2e:98:07:c1:e2:df:b0:a9:0c:
                    0d:e2:f9:06:d5:5c:0e:4e:3c:e5:80:ab:ce:4d:be:
                    28:61
                Exponent: 65537 (0x10001)
    Signature Algorithm: sha256WithRSAEncryption
         51:77:ff:23:13:87:3e:dc:7c:aa:13:a2:d4:69:08:57:e9:2d:
         de:34:77:a8:df:4c:6c:99:45:6b:db:46:dc:7c:4f:ff:cf:c2:
         8c:de:e7:95:0c:57:88:e9:c0:67:4b:77:c1:d2:d1:d3:7d:0d:
         71:2d:cd:d5:ca:1c:8b:0b:44:fb:72:4c:ab:30:35:fa:8b:e4:
         e0:9f:98:6d:e4:97:a6:74:0a:7b:ad:70:4f:35:59:c9:d3:99:
         83:6d:2b:72:d5:36:0d:1e:54:10:ae:56:5f:4b:6d:c9:36:ea:
         87:e7:d5:ca:7a:6c:fe:fc:13:83:16:5c:8f:bd:eb:38:a6:71:
         2a:30:8b:d7:cd:80:b9:13:e3:ce:51:01:f4:5e:f1:63:cf:18:
         67:da:e4:fa:4b:7a:c0:90:bf:7e:21:f3:85:37:d9:c5:0a:b6:
         22:c0:ff:15:c9:dd:97:e1:16:2f:b5:28:7c:19:99:32:27:10:
         d2:5e:8d:b1:de:10:38:07:74:93:f9:0a:cb:49:ef:d2:9e:f6:
         ee:f8:45:8f:6d:f5:c0:fc:6d:6e:b7:a3:c6:40:67:be:c8:20:
         0c:20:b1:20:49:34:5b:5d:55:4e:dd:fa:a3:4e:99:33:af:ff:
         e1:18:f9:e5:4a:5c:f6:43:03:0b:7f:96:e4:7d:50:71:39:74:
         3e:26:3a:f6
-----BEGIN CERTIFICATE-----
MIIDYDCCAkgCAQIwDQYJKoZIhvcNAQELBQAwdDELMAkGA1UEBhMCUlUxDzANBgNV
BAgMBk1vc2NvdzEPMA0GA1UEBwwGTW9zY293MRcwFQYDVQQKDA5hbnlrcy5jb20s
IEluYzEOMAwGA1UECwwFQU5ZS1MxGjAYBgNVBAMMEWR0bHMtY2EuYW55a3MuY29t
MB4XDTIyMDkwNDE1MTcxOFoXDTIzMDkwNDE1MTcxOFoweDELMAkGA1UEBhMCUlUx
DzANBgNVBAgMBk1vc2NvdzEPMA0GA1UEBwwGTW9zY293MRcwFQYDVQQKDA5hbnlr
cy5jb20sIEluYzEOMAwGA1UECwwFQU5ZS1MxHjAcBgNVBAMMFWR0bHMtY2xpZW50
LmFueWtzLmNvbTCCASIwDQYJKoZIhvcNAQEBBQADggEPADCCAQoCggEBAOfo+2aq
adXhqxpFj+thrHUyroPs5gzfvkFwhmysAhUWcKpSPTkNJNyntj7c8EI2v6nKVAVX
AQMCFwI8WDPFHZLvb3m/PmwYo1NJct0ZZbdTz0QeNqQ+Ss4QdwZAlIQCBKFV1rk/
IsThZ1ertnY9+NBcg8gHUKY2xQ3QcRsuS3FpgXb577sE42QDxvBbgEkkotqZv6e+
YXkrfMuihU8Jj53TKoTsZ4dkc3Kx4hgq9eWLFm5fFd+N4wErMSLK+gfaOSnz17WT
BeFAHqcG+J5b7CQ/fmfFYGIdUL37zWcN3gNRg9qzX5UQLpgHweLfsKkMDeL5BtVc
Dk485YCrzk2+KGECAwEAATANBgkqhkiG9w0BAQsFAAOCAQEAUXf/IxOHPtx8qhOi
1GkIV+kt3jR3qN9MbJlFa9tG3HxP/8/CjN7nlQxXiOnAZ0t3wdLR030NcS3N1coc
iwtE+3JMqzA1+ovk4J+YbeSXpnQKe61wTzVZydOZg20rctU2DR5UEK5WX0ttyTbq
h+fVynps/vwTgxZcj73rOKZxKjCL182AuRPjzlEB9F7xY88YZ9rk+kt6wJC/fiHz
hTfZxQq2IsD/Fcndl+EWL7UofBmZMicQ0l6Nsd4QOAd0k/kKy0nv0p727vhFj231
wPxtbrejxkBnvsggDCCxIEk0W11VTt36o06ZM6//4Rj55Upc9kMDC3+W5H1QcTl0
PiY69g==
-----END CERTIFICATE-----
