Certificate:
    Data:
        Version: 3 (0x2)
        Serial Number: 2 (0x2)
        Signature Algorithm: sha256WithRSAEncryption
        Issuer: C=RU, ST=Moscow, L=Moscow, O=anyks.com, Inc, OU=ANYKS, CN=dtls-ca.anyks.com
        Validity
            Not Before: Dec 24 13:20:56 2023 GMT
            Not After : Dec 23 13:20:56 2024 GMT
        Subject: C=RU, ST=Moscow, L=Moscow, O=anyks.com, Inc, OU=ANYKS, CN=dtls-client.anyks.com
        Subject Public Key Info:
            Public Key Algorithm: rsaEncryption
                Public-Key: (2048 bit)
                Modulus:
                    00:e7:84:60:ce:7e:77:8c:e1:07:16:5b:d8:0b:f5:
                    5c:6b:9e:ac:37:b2:22:ca:92:df:06:51:25:98:46:
                    ee:0a:8a:cc:ed:39:be:5e:81:40:03:80:67:98:88:
                    19:15:9a:02:23:dd:e4:3d:da:cf:ec:af:34:8c:f8:
                    58:7a:82:72:c1:cd:e0:4d:ab:ad:e1:a6:9d:e9:3d:
                    41:e0:7f:55:7e:0a:4b:30:54:ec:e3:03:3f:a5:f3:
                    43:e6:52:d6:f0:f9:1c:7f:5e:31:6d:13:a0:dd:ae:
                    c2:b0:90:9d:b4:b7:0f:46:c6:bf:aa:f4:3d:f1:09:
                    db:2b:10:8b:ae:ce:9c:0a:a9:f0:00:0f:d0:35:c6:
                    d4:d4:42:ac:17:7b:b2:03:c0:69:30:75:3c:de:8f:
                    5f:08:5c:94:0a:af:a7:9e:3e:f3:a7:b1:08:23:3a:
                    a6:e6:a4:b3:b4:aa:7c:c5:c2:33:16:ae:dc:aa:fd:
                    3d:aa:fd:71:95:13:62:2e:d4:84:51:d7:76:24:14:
                    ac:03:b8:d2:d7:c2:92:f2:73:f5:b8:f4:90:9c:38:
                    c9:4a:58:f8:2a:14:28:0a:c1:43:9b:83:56:fc:9c:
                    ea:0d:de:0a:62:4a:b1:c9:ef:59:62:68:4c:58:3f:
                    9d:76:b8:f1:88:60:a6:26:6e:45:5f:1d:73:33:ca:
                    4c:8f
                Exponent: 65537 (0x10001)
        X509v3 extensions:
            X509v3 Subject Key Identifier: 
                D4:9E:54:37:26:D4:18:09:B5:16:32:F0:A9:15:10:1E:28:2C:4C:FD
            X509v3 Authority Key Identifier: 
                AD:C3:6A:83:07:43:4C:5C:48:D3:0A:B4:AA:01:3B:BA:2A:C5:57:D0
    Signature Algorithm: sha256WithRSAEncryption
    Signature Value:
        27:f7:7f:52:66:a5:23:fa:ad:1a:7e:d8:96:8d:23:4d:54:dc:
        79:65:22:78:f6:e7:2a:85:3b:7b:91:7a:bb:b7:1c:99:07:15:
        04:de:3c:c3:1b:26:7d:2b:c3:43:5d:b1:e3:0e:da:83:df:9d:
        1a:6f:1a:01:c1:03:42:f3:ac:9a:7e:85:14:cd:75:7a:55:3a:
        d0:33:f2:14:3d:5c:e1:45:bb:08:fd:ed:3a:d7:b0:2c:d9:ca:
        d3:2f:fe:3a:90:f8:6a:ea:58:dc:7e:a4:18:40:ae:5b:79:e0:
        95:91:e3:f0:07:d9:8e:ab:bc:d4:39:4b:b0:7e:71:06:60:b0:
        c3:c3:ba:7a:33:f3:de:02:4e:42:88:25:60:36:61:74:02:45:
        2b:13:01:71:91:1d:2e:01:82:3a:f4:27:0b:e3:f9:2f:e1:70:
        be:bb:1d:c6:59:ac:f3:79:72:9b:cd:3a:b0:09:11:76:8f:bc:
        9b:4d:04:c6:68:e2:39:8b:42:44:8f:58:33:3c:72:14:72:06:
        41:4e:46:4c:95:fc:42:30:7b:e9:45:2a:87:2e:66:00:b9:89:
        b9:47:c1:64:fc:15:ae:92:ab:5b:8a:ff:76:52:0c:55:ba:d7:
        e8:ac:8c:cc:dc:18:83:3d:88:10:0d:a1:b5:fd:46:4e:7d:d7:
        92:97:79:78
-----BEGIN CERTIFICATE-----
MIIDqTCCApGgAwIBAgIBAjANBgkqhkiG9w0BAQsFADB0MQswCQYDVQQGEwJSVTEP
MA0GA1UECAwGTW9zY293MQ8wDQYDVQQHDAZNb3Njb3cxFzAVBgNVBAoMDmFueWtz
LmNvbSwgSW5jMQ4wDAYDVQQLDAVBTllLUzEaMBgGA1UEAwwRZHRscy1jYS5hbnlr
cy5jb20wHhcNMjMxMjI0MTMyMDU2WhcNMjQxMjIzMTMyMDU2WjB4MQswCQYDVQQG
EwJSVTEPMA0GA1UECAwGTW9zY293MQ8wDQYDVQQHDAZNb3Njb3cxFzAVBgNVBAoM
DmFueWtzLmNvbSwgSW5jMQ4wDAYDVQQLDAVBTllLUzEeMBwGA1UEAwwVZHRscy1j
bGllbnQuYW55a3MuY29tMIIBIjANBgkqhkiG9w0BAQEFAAOCAQ8AMIIBCgKCAQEA
54Rgzn53jOEHFlvYC/Vca56sN7IiypLfBlElmEbuCorM7Tm+XoFAA4BnmIgZFZoC
I93kPdrP7K80jPhYeoJywc3gTaut4aad6T1B4H9VfgpLMFTs4wM/pfND5lLW8Pkc
f14xbROg3a7CsJCdtLcPRsa/qvQ98QnbKxCLrs6cCqnwAA/QNcbU1EKsF3uyA8Bp
MHU83o9fCFyUCq+nnj7zp7EIIzqm5qSztKp8xcIzFq7cqv09qv1xlRNiLtSEUdd2
JBSsA7jS18KS8nP1uPSQnDjJSlj4KhQoCsFDm4NW/JzqDd4KYkqxye9ZYmhMWD+d
drjxiGCmJm5FXx1zM8pMjwIDAQABo0IwQDAdBgNVHQ4EFgQU1J5UNybUGAm1FjLw
qRUQHigsTP0wHwYDVR0jBBgwFoAUrcNqgwdDTFxI0wq0qgE7uirFV9AwDQYJKoZI
hvcNAQELBQADggEBACf3f1JmpSP6rRp+2JaNI01U3HllInj25yqFO3uReru3HJkH
FQTePMMbJn0rw0NdseMO2oPfnRpvGgHBA0LzrJp+hRTNdXpVOtAz8hQ9XOFFuwj9
7TrXsCzZytMv/jqQ+GrqWNx+pBhArlt54JWR4/AH2Y6rvNQ5S7B+cQZgsMPDunoz
894CTkKIJWA2YXQCRSsTAXGRHS4Bgjr0Jwvj+S/hcL67HcZZrPN5cpvNOrAJEXaP
vJtNBMZo4jmLQkSPWDM8chRyBkFORkyV/EIwe+lFKocuZgC5iblHwWT8Fa6Sq1uK
/3ZSDFW61+isjMzcGIM9iBANobX9Rk5915KXeXg=
-----END CERTIFICATE-----
