Certificate:
    Data:
        Version: 3 (0x2)
        Serial Number: 2 (0x2)
        Signature Algorithm: sha256WithRSAEncryption
        Issuer: C=RU, ST=Moscow, L=Moscow, O=anyks.net, Inc, OU=ANYKS, CN=dtls-ca.anyks.net
        Validity
            Not Before: Dec 24 13:13:12 2023 GMT
            Not After : Dec 23 13:13:12 2024 GMT
        Subject: C=RU, ST=Moscow, L=Moscow, O=anyks.net, Inc, OU=ANYKS, CN=dtls-client.anyks.net
        Subject Public Key Info:
            Public Key Algorithm: rsaEncryption
                Public-Key: (2048 bit)
                Modulus:
                    00:b8:a8:50:ba:02:da:a4:69:c5:e1:58:9f:31:d4:
                    78:ed:9e:63:9d:43:06:18:25:78:e9:5f:d7:b7:d0:
                    55:ad:f4:26:b3:dc:39:3b:15:9f:47:b2:b9:f3:79:
                    62:72:99:16:c9:29:96:4c:53:78:e1:3c:f3:17:08:
                    84:a9:7c:27:9f:8b:d5:b9:ee:79:6f:e2:e3:48:0a:
                    e7:71:04:07:c1:b8:1d:b8:b6:f1:dc:6f:0c:a6:e3:
                    b8:08:70:bc:8b:a2:30:6e:a4:9f:5b:9f:58:b6:14:
                    2e:48:de:af:d4:fc:ac:66:59:c5:8d:19:64:47:c8:
                    2b:bf:aa:9d:83:b8:f9:b3:94:a6:e4:2f:55:80:a6:
                    34:76:df:18:d9:80:04:6d:20:f4:ba:c6:59:a8:6c:
                    82:75:f6:c0:18:f9:0d:38:e9:11:de:ef:ed:97:26:
                    19:dd:4b:47:45:7e:d6:cb:de:1e:c6:30:52:dc:7b:
                    bb:31:fb:bf:2a:62:37:2c:7d:08:2d:f0:31:ce:24:
                    33:b4:12:85:64:13:9c:ce:7b:93:01:13:f2:65:ca:
                    e8:32:50:61:af:a9:90:93:c5:b3:47:96:46:fa:a3:
                    4b:66:62:79:1a:4a:6e:6a:10:d9:5f:07:6d:22:c2:
                    68:78:a0:db:85:40:a1:71:2a:ac:aa:95:dc:bd:6f:
                    e4:47
                Exponent: 65537 (0x10001)
        X509v3 extensions:
            X509v3 Subject Key Identifier: 
                B7:F9:1C:9B:A8:0C:B2:E7:33:FF:DC:F3:DB:3F:5F:B8:C8:EC:5B:3B
            X509v3 Authority Key Identifier: 
                BD:59:1E:26:D6:DC:FD:DC:61:CF:8E:B4:C3:CD:F3:F0:6C:F2:4A:A0
    Signature Algorithm: sha256WithRSAEncryption
    Signature Value:
        7c:53:02:13:35:6d:ba:e4:0e:7d:8a:5e:30:68:e4:e0:00:14:
        cd:cb:2d:d1:0a:02:f5:6e:29:dc:9b:91:32:a4:c0:74:c2:49:
        5e:f2:57:c6:0e:ed:9f:30:b3:7f:5c:e2:37:5e:25:65:72:4b:
        94:6d:13:63:96:16:3c:89:08:fd:5e:bb:64:91:96:82:79:8e:
        1d:f1:d2:e2:75:e1:a9:76:45:9e:b1:93:a8:fb:5e:78:fa:c6:
        be:2e:4e:54:f7:77:c1:65:49:44:f3:6e:c7:b1:14:88:cc:75:
        5c:ff:75:41:18:19:8c:bc:7d:09:e3:ad:73:e4:5e:c7:33:3b:
        88:ff:49:c7:61:7b:1b:c3:c7:cb:29:49:d3:6b:1b:79:42:39:
        92:e9:08:17:14:d4:4d:16:12:9a:f5:c0:f4:ba:47:96:f2:b4:
        1d:0c:ad:5b:ee:52:fb:8c:1b:90:9e:5c:c9:10:77:50:9d:2e:
        49:8e:b1:f1:17:93:9a:ad:14:38:d7:3c:2a:10:26:0d:09:dd:
        5f:27:69:c3:fd:49:10:58:32:3b:85:35:f6:99:24:9a:13:af:
        d3:cc:b0:08:38:b1:a1:ad:0a:6f:91:37:fd:3e:f7:e0:02:e0:
        d2:20:46:79:2f:5f:7c:e6:ee:09:4c:61:de:da:d4:ab:4f:7d:
        3d:0a:5b:e3
-----BEGIN CERTIFICATE-----
MIIDqTCCApGgAwIBAgIBAjANBgkqhkiG9w0BAQsFADB0MQswCQYDVQQGEwJSVTEP
MA0GA1UECAwGTW9zY293MQ8wDQYDVQQHDAZNb3Njb3cxFzAVBgNVBAoMDmFueWtz
Lm5ldCwgSW5jMQ4wDAYDVQQLDAVBTllLUzEaMBgGA1UEAwwRZHRscy1jYS5hbnlr
cy5uZXQwHhcNMjMxMjI0MTMxMzEyWhcNMjQxMjIzMTMxMzEyWjB4MQswCQYDVQQG
EwJSVTEPMA0GA1UECAwGTW9zY293MQ8wDQYDVQQHDAZNb3Njb3cxFzAVBgNVBAoM
DmFueWtzLm5ldCwgSW5jMQ4wDAYDVQQLDAVBTllLUzEeMBwGA1UEAwwVZHRscy1j
bGllbnQuYW55a3MubmV0MIIBIjANBgkqhkiG9w0BAQEFAAOCAQ8AMIIBCgKCAQEA
uKhQugLapGnF4VifMdR47Z5jnUMGGCV46V/Xt9BVrfQms9w5OxWfR7K583licpkW
ySmWTFN44TzzFwiEqXwnn4vVue55b+LjSArncQQHwbgduLbx3G8MpuO4CHC8i6Iw
bqSfW59YthQuSN6v1PysZlnFjRlkR8grv6qdg7j5s5Sm5C9VgKY0dt8Y2YAEbSD0
usZZqGyCdfbAGPkNOOkR3u/tlyYZ3UtHRX7Wy94exjBS3Hu7Mfu/KmI3LH0ILfAx
ziQztBKFZBOcznuTARPyZcroMlBhr6mQk8WzR5ZG+qNLZmJ5GkpuahDZXwdtIsJo
eKDbhUChcSqsqpXcvW/kRwIDAQABo0IwQDAdBgNVHQ4EFgQUt/kcm6gMsucz/9zz
2z9fuMjsWzswHwYDVR0jBBgwFoAUvVkeJtbc/dxhz460w83z8GzySqAwDQYJKoZI
hvcNAQELBQADggEBAHxTAhM1bbrkDn2KXjBo5OAAFM3LLdEKAvVuKdybkTKkwHTC
SV7yV8YO7Z8ws39c4jdeJWVyS5RtE2OWFjyJCP1eu2SRloJ5jh3x0uJ14al2RZ6x
k6j7Xnj6xr4uTlT3d8FlSUTzbsexFIjMdVz/dUEYGYy8fQnjrXPkXsczO4j/Scdh
exvDx8spSdNrG3lCOZLpCBcU1E0WEpr1wPS6R5bytB0MrVvuUvuMG5CeXMkQd1Cd
LkmOsfEXk5qtFDjXPCoQJg0J3V8nacP9SRBYMjuFNfaZJJoTr9PMsAg4saGtCm+R
N/0+9+AC4NIgRnkvX3zm7glMYd7a1KtPfT0KW+M=
-----END CERTIFICATE-----
