Certificate:
    Data:
        Version: 1 (0x0)
        Serial Number: 1 (0x1)
        Signature Algorithm: sha256WithRSAEncryption
        Issuer: C=RU, ST=Moscow, L=Moscow, O=anyks.com, Inc, OU=ANYKS, CN=dtls-ca.anyks.com
        Validity
            Not Before: Sep  4 15:17:14 2022 GMT
            Not After : Sep  4 15:17:14 2023 GMT
        Subject: C=RU, ST=Moscow, L=Moscow, O=anyks.com, Inc, OU=ANYKS, CN=dtls-server.anyks.com
        Subject Public Key Info:
            Public Key Algorithm: rsaEncryption
                RSA Public-Key: (2048 bit)
                Modulus:
                    00:d6:5a:64:16:2f:8c:08:f1:58:2e:13:d2:1a:61:
                    2e:b8:3a:44:18:ba:e2:fc:55:93:5a:45:72:9b:0f:
                    12:57:c5:41:47:f2:d0:51:f8:73:8c:7f:af:38:9c:
                    63:34:db:b4:76:10:04:ab:e7:56:44:8d:90:a2:57:
                    e5:15:bc:67:18:07:96:c8:c0:5f:5e:6d:a2:21:34:
                    47:66:a4:95:aa:63:27:2b:d8:57:05:2a:ba:b1:3d:
                    5a:47:f2:28:d5:11:63:4e:df:5a:f6:25:e0:df:f2:
                    bf:b4:d9:d2:6e:21:f9:9b:39:49:3f:22:b6:03:a4:
                    95:71:96:72:a4:1a:f2:a6:63:3e:9a:4a:34:e7:74:
                    b5:21:69:07:19:75:78:ea:4f:92:15:16:68:ae:4b:
                    09:cb:6a:f8:59:4e:52:95:32:fd:56:3e:55:8a:95:
                    ee:fe:de:38:27:07:a2:7d:60:28:bb:f8:66:71:93:
                    2f:6b:f7:2b:c6:e2:5b:e6:89:09:9a:71:a5:e5:d9:
                    57:a3:79:92:99:4a:37:94:32:11:60:1b:54:70:1c:
                    ea:f2:91:81:fd:23:81:4a:c0:40:10:74:1f:68:88:
                    3e:33:30:63:78:30:d4:99:16:be:0a:8e:d9:20:59:
                    25:0e:ea:28:57:4b:7e:ee:f2:54:69:ae:76:d9:46:
                    74:11
                Exponent: 65537 (0x10001)
    Signature Algorithm: sha256WithRSAEncryption
         bf:c6:42:00:f9:ca:26:ed:c3:81:f2:98:88:d8:8b:59:b4:9d:
         08:6a:60:23:82:97:be:38:0c:bc:38:b1:44:63:31:2a:e9:cc:
         83:f7:e3:37:fb:03:14:a7:12:ec:a4:8b:3f:81:8e:fb:96:b0:
         c1:52:0d:bd:da:dd:bc:46:cd:5c:6e:fa:4b:0d:c1:44:9c:7f:
         5d:8d:d7:4d:27:6c:a0:75:06:6f:7a:66:32:18:ee:6e:e6:2b:
         f6:e0:7a:0b:ba:5f:f2:8f:8b:86:f5:06:61:03:aa:91:de:74:
         b3:a1:d6:05:66:88:96:00:b0:92:fe:5c:80:b6:68:f3:43:84:
         b2:c3:98:7d:24:ad:3e:3c:a0:f7:4d:e4:11:5d:83:52:9c:77:
         b4:a5:c0:cf:b5:f6:79:7e:22:8c:22:21:99:cb:c4:78:43:60:
         4d:41:e4:22:5b:3f:8f:6b:98:f4:57:c5:b6:c8:6e:80:f7:54:
         b7:cf:2f:f6:08:15:5d:15:90:57:65:ad:7d:79:86:d8:0d:7d:
         58:df:1b:a2:91:ae:9b:de:24:7f:10:ed:e3:1c:ac:46:a9:1d:
         c0:75:42:07:ba:7d:e2:51:82:48:d4:80:9f:6e:5b:63:13:bb:
         99:e8:31:7c:4e:2a:72:31:40:11:33:35:8f:14:ec:49:f1:5f:
         5d:ac:36:ef
-----BEGIN CERTIFICATE-----
MIIDYDCCAkgCAQEwDQYJKoZIhvcNAQELBQAwdDELMAkGA1UEBhMCUlUxDzANBgNV
BAgMBk1vc2NvdzEPMA0GA1UEBwwGTW9zY293MRcwFQYDVQQKDA5hbnlrcy5jb20s
IEluYzEOMAwGA1UECwwFQU5ZS1MxGjAYBgNVBAMMEWR0bHMtY2EuYW55a3MuY29t
MB4XDTIyMDkwNDE1MTcxNFoXDTIzMDkwNDE1MTcxNFoweDELMAkGA1UEBhMCUlUx
DzANBgNVBAgMBk1vc2NvdzEPMA0GA1UEBwwGTW9zY293MRcwFQYDVQQKDA5hbnlr
cy5jb20sIEluYzEOMAwGA1UECwwFQU5ZS1MxHjAcBgNVBAMMFWR0bHMtc2VydmVy
LmFueWtzLmNvbTCCASIwDQYJKoZIhvcNAQEBBQADggEPADCCAQoCggEBANZaZBYv
jAjxWC4T0hphLrg6RBi64vxVk1pFcpsPElfFQUfy0FH4c4x/rzicYzTbtHYQBKvn
VkSNkKJX5RW8ZxgHlsjAX15toiE0R2aklapjJyvYVwUqurE9WkfyKNURY07fWvYl
4N/yv7TZ0m4h+Zs5ST8itgOklXGWcqQa8qZjPppKNOd0tSFpBxl1eOpPkhUWaK5L
Cctq+FlOUpUy/VY+VYqV7v7eOCcHon1gKLv4ZnGTL2v3K8biW+aJCZpxpeXZV6N5
kplKN5QyEWAbVHAc6vKRgf0jgUrAQBB0H2iIPjMwY3gw1JkWvgqO2SBZJQ7qKFdL
fu7yVGmudtlGdBECAwEAATANBgkqhkiG9w0BAQsFAAOCAQEAv8ZCAPnKJu3DgfKY
iNiLWbSdCGpgI4KXvjgMvDixRGMxKunMg/fjN/sDFKcS7KSLP4GO+5awwVINvdrd
vEbNXG76Sw3BRJx/XY3XTSdsoHUGb3pmMhjubuYr9uB6C7pf8o+LhvUGYQOqkd50
s6HWBWaIlgCwkv5cgLZo80OEssOYfSStPjyg903kEV2DUpx3tKXAz7X2eX4ijCIh
mcvEeENgTUHkIls/j2uY9FfFtshugPdUt88v9ggVXRWQV2WtfXmG2A19WN8bopGu
m94kfxDt4xysRqkdwHVCB7p94lGCSNSAn25bYxO7megxfE4qcjFAETM1jxTsSfFf
Xaw27w==
-----END CERTIFICATE-----
