Certificate:
    Data:
        Version: 3 (0x2)
        Serial Number: 1 (0x1)
        Signature Algorithm: sha256WithRSAEncryption
        Issuer: C=RU, ST=Moscow, L=Moscow, O=anyks.net, Inc, OU=ANYKS, CN=dtls-ca.anyks.net
        Validity
            Not Before: Dec 24 13:13:06 2023 GMT
            Not After : Dec 23 13:13:06 2024 GMT
        Subject: C=RU, ST=Moscow, L=Moscow, O=anyks.net, Inc, OU=ANYKS, CN=dtls-server.anyks.net
        Subject Public Key Info:
            Public Key Algorithm: rsaEncryption
                Public-Key: (2048 bit)
                Modulus:
                    00:b1:4a:a5:fb:c3:00:3f:94:f0:0c:04:42:31:c5:
                    63:47:0c:35:ee:9a:cd:64:3b:ed:dc:c7:72:ac:8c:
                    f1:02:14:7a:03:3f:e1:53:0c:36:47:8f:ad:0c:05:
                    c8:50:2c:56:6f:b5:d7:32:2f:df:50:31:d8:71:96:
                    55:29:db:30:f6:57:a7:f6:9a:cf:fa:fc:11:86:3d:
                    db:53:ec:0d:45:9c:17:ef:39:ed:22:ec:d0:72:67:
                    a7:da:d5:35:d6:f2:b5:de:55:84:8f:1f:17:b4:3c:
                    83:05:c8:ba:4a:30:74:ee:79:82:e0:92:ad:25:8e:
                    6e:a0:96:6c:70:c7:ca:44:53:6e:6d:72:d7:32:10:
                    4e:af:71:5b:ac:50:15:08:30:5e:45:33:17:30:e0:
                    b9:ba:e6:65:5e:a2:c6:1b:0a:09:35:4a:4e:18:d7:
                    f6:32:f3:93:bb:e6:9e:ba:4e:20:a2:55:c3:ca:bc:
                    fb:5f:0a:ac:50:8b:fd:e7:e9:db:6b:80:b7:bc:b3:
                    b4:81:9a:3a:dd:54:a2:1d:81:bc:fb:6c:d6:04:eb:
                    f8:70:9d:0e:57:0b:50:66:60:e7:fd:23:28:1a:0b:
                    75:e8:9c:24:a1:65:13:62:cc:14:db:f1:23:4f:0a:
                    77:30:b3:3d:57:a5:a6:ad:5b:8e:21:6d:d3:96:99:
                    8a:01
                Exponent: 65537 (0x10001)
        X509v3 extensions:
            X509v3 Subject Key Identifier: 
                59:29:A1:04:F3:29:D3:E8:F2:E7:5D:6D:5C:90:B8:D7:7D:74:7E:D0
            X509v3 Authority Key Identifier: 
                BD:59:1E:26:D6:DC:FD:DC:61:CF:8E:B4:C3:CD:F3:F0:6C:F2:4A:A0
    Signature Algorithm: sha256WithRSAEncryption
    Signature Value:
        64:1e:62:24:a9:4e:67:c0:85:47:97:6e:a3:54:e7:0e:8f:02:
        a0:5d:72:68:54:5d:03:d1:65:6b:99:d8:e7:4b:6b:ee:b8:97:
        3f:33:b6:6a:5e:22:26:e8:34:fb:14:0d:f3:f9:e1:5e:68:f7:
        ac:d7:4d:e9:90:99:62:75:a0:58:ce:ba:94:da:47:76:fd:9b:
        fd:85:1e:40:02:bc:37:d4:3d:4d:ec:cc:d5:6a:72:8c:fe:c3:
        70:67:46:b3:86:11:8d:9a:9a:f5:a0:07:53:ec:c7:61:8b:cc:
        95:f5:13:49:b0:45:69:49:62:89:ab:fe:32:44:6c:fc:eb:0e:
        69:d5:47:d5:24:eb:16:2f:a2:eb:eb:43:36:26:3b:75:15:ef:
        fc:3b:9a:7f:9f:a9:f7:13:39:dd:46:67:d4:cd:f5:7e:ed:ce:
        76:9d:b8:a9:09:f8:32:18:75:75:65:f5:8b:cc:fe:a6:d8:d9:
        d6:bd:20:42:6f:23:0a:90:ad:4f:42:41:4a:9e:5d:68:00:94:
        96:77:db:fb:b2:7c:9e:a6:ee:08:cf:1a:e5:da:e9:06:ae:77:
        04:6f:53:8c:94:29:01:a6:5f:f3:6e:70:e7:a6:45:4a:7b:e9:
        da:cb:18:32:fa:0b:55:83:33:cf:6a:9d:08:52:3a:6d:3a:f5:
        f7:78:b1:0e
-----BEGIN CERTIFICATE-----
MIIDqTCCApGgAwIBAgIBATANBgkqhkiG9w0BAQsFADB0MQswCQYDVQQGEwJSVTEP
MA0GA1UECAwGTW9zY293MQ8wDQYDVQQHDAZNb3Njb3cxFzAVBgNVBAoMDmFueWtz
Lm5ldCwgSW5jMQ4wDAYDVQQLDAVBTllLUzEaMBgGA1UEAwwRZHRscy1jYS5hbnlr
cy5uZXQwHhcNMjMxMjI0MTMxMzA2WhcNMjQxMjIzMTMxMzA2WjB4MQswCQYDVQQG
EwJSVTEPMA0GA1UECAwGTW9zY293MQ8wDQYDVQQHDAZNb3Njb3cxFzAVBgNVBAoM
DmFueWtzLm5ldCwgSW5jMQ4wDAYDVQQLDAVBTllLUzEeMBwGA1UEAwwVZHRscy1z
ZXJ2ZXIuYW55a3MubmV0MIIBIjANBgkqhkiG9w0BAQEFAAOCAQ8AMIIBCgKCAQEA
sUql+8MAP5TwDARCMcVjRww17prNZDvt3MdyrIzxAhR6Az/hUww2R4+tDAXIUCxW
b7XXMi/fUDHYcZZVKdsw9len9prP+vwRhj3bU+wNRZwX7zntIuzQcmen2tU11vK1
3lWEjx8XtDyDBci6SjB07nmC4JKtJY5uoJZscMfKRFNubXLXMhBOr3FbrFAVCDBe
RTMXMOC5uuZlXqLGGwoJNUpOGNf2MvOTu+aeuk4golXDyrz7XwqsUIv95+nba4C3
vLO0gZo63VSiHYG8+2zWBOv4cJ0OVwtQZmDn/SMoGgt16JwkoWUTYswU2/EjTwp3
MLM9V6WmrVuOIW3TlpmKAQIDAQABo0IwQDAdBgNVHQ4EFgQUWSmhBPMp0+jy511t
XJC41310ftAwHwYDVR0jBBgwFoAUvVkeJtbc/dxhz460w83z8GzySqAwDQYJKoZI
hvcNAQELBQADggEBAGQeYiSpTmfAhUeXbqNU5w6PAqBdcmhUXQPRZWuZ2OdLa+64
lz8ztmpeIiboNPsUDfP54V5o96zXTemQmWJ1oFjOupTaR3b9m/2FHkACvDfUPU3s
zNVqcoz+w3BnRrOGEY2amvWgB1Psx2GLzJX1E0mwRWlJYomr/jJEbPzrDmnVR9Uk
6xYvouvrQzYmO3UV7/w7mn+fqfcTOd1GZ9TN9X7tznaduKkJ+DIYdXVl9YvM/qbY
2da9IEJvIwqQrU9CQUqeXWgAlJZ32/uyfJ6m7gjPGuXa6QaudwRvU4yUKQGmX/Nu
cOemRUp76drLGDL6C1WDM89qnQhSOm069fd4sQ4=
-----END CERTIFICATE-----
