Certificate:
    Data:
        Version: 1 (0x0)
        Serial Number: 1 (0x1)
        Signature Algorithm: sha256WithRSAEncryption
        Issuer: C=RU, ST=Moscow, L=Moscow, O=anyks.com, Inc, OU=ANYKS, CN=dtls-ca.anyks.com
        Validity
            Not Before: Oct 15 22:56:48 2023 GMT
            Not After : Oct 14 22:56:48 2024 GMT
        Subject: C=RU, ST=Moscow, L=Moscow, O=anyks.com, Inc, OU=ANYKS, CN=dtls-server.anyks.com
        Subject Public Key Info:
            Public Key Algorithm: rsaEncryption
                Public-Key: (2048 bit)
                Modulus:
                    00:a4:cc:3c:3d:c7:db:75:3a:5e:85:e7:b0:b7:23:
                    c8:05:fe:73:da:b2:9f:d4:73:8b:73:e9:0f:22:63:
                    04:d4:02:1b:3f:78:3d:68:3a:e1:42:26:d1:42:79:
                    82:45:b1:36:8d:a2:5c:2b:ed:57:f7:9b:fb:92:42:
                    4e:1d:71:ad:c0:3a:10:dd:0e:fc:b3:7f:2a:63:69:
                    d1:6d:3f:fa:be:a7:3a:0f:24:8f:bb:bc:cc:71:8a:
                    a8:28:3e:bc:0a:48:29:67:ae:42:61:1e:17:55:6c:
                    6e:b5:6f:52:4f:54:83:ac:5e:75:77:03:97:f5:7a:
                    92:70:8b:98:c9:cf:29:a2:67:c8:32:93:78:ca:44:
                    43:5a:17:d9:ae:e1:e6:e2:6e:3b:84:b2:98:d8:39:
                    d2:60:bb:ac:f1:48:80:fb:63:30:6d:90:b1:40:98:
                    ab:a1:87:64:80:0b:b0:64:74:a9:48:1a:52:d4:4b:
                    85:ce:a1:d3:39:5a:d3:25:2b:a7:a7:cd:11:88:6a:
                    ab:cd:e8:a3:55:b9:53:10:ef:51:5a:29:28:34:d5:
                    38:c7:04:0e:0c:3f:ac:6f:98:19:dd:79:50:95:be:
                    a6:b8:7b:67:87:e1:57:fa:11:89:3c:66:ed:0b:d9:
                    89:f8:53:82:a7:e6:8f:17:88:86:3a:82:8e:66:27:
                    2a:e9
                Exponent: 65537 (0x10001)
    Signature Algorithm: sha256WithRSAEncryption
    Signature Value:
        73:4d:9d:92:e0:bd:68:46:6e:6e:5b:8e:39:94:0e:87:d0:2d:
        94:bb:b2:2a:a5:ed:8a:b3:4b:ce:44:e6:a2:52:5e:a7:1f:7f:
        8d:d1:73:9a:66:4b:04:91:ad:ad:6c:d6:2d:3f:20:b8:2b:fb:
        43:94:99:19:e4:51:24:a1:3a:f3:78:a9:76:32:aa:50:00:f9:
        5b:38:7a:85:54:a5:93:e9:d5:31:ab:36:7e:66:be:6c:86:49:
        79:9c:c2:9e:ff:26:67:7b:e0:ff:fc:cd:dc:b7:03:fa:32:5f:
        9e:ba:96:c0:a9:9c:f9:85:5f:a1:36:fd:f4:b4:ae:89:f4:29:
        57:19:9c:dd:3d:61:5a:5f:b5:6b:b4:be:a7:ec:29:ea:f2:6c:
        4f:0c:f2:6a:24:66:20:26:c7:40:3f:4b:5d:4a:a4:5c:15:74:
        f7:6c:4e:ad:b3:9b:7f:0e:20:f2:8c:c7:da:ba:3e:96:1e:e5:
        86:06:76:a6:0a:39:a5:8b:21:fc:68:34:fa:e0:30:a7:8c:96:
        9a:75:d4:a6:ed:19:be:d3:d4:0f:1d:68:d2:65:3c:28:7e:c2:
        37:0d:13:5a:76:32:7b:6b:1d:3a:5f:fe:c6:6b:bd:04:67:aa:
        92:76:d9:c9:ff:99:2c:99:2c:ca:07:43:30:e4:54:24:e8:72:
        74:28:f9:4d
-----BEGIN CERTIFICATE-----
MIIDYDCCAkgCAQEwDQYJKoZIhvcNAQELBQAwdDELMAkGA1UEBhMCUlUxDzANBgNV
BAgMBk1vc2NvdzEPMA0GA1UEBwwGTW9zY293MRcwFQYDVQQKDA5hbnlrcy5jb20s
IEluYzEOMAwGA1UECwwFQU5ZS1MxGjAYBgNVBAMMEWR0bHMtY2EuYW55a3MuY29t
MB4XDTIzMTAxNTIyNTY0OFoXDTI0MTAxNDIyNTY0OFoweDELMAkGA1UEBhMCUlUx
DzANBgNVBAgMBk1vc2NvdzEPMA0GA1UEBwwGTW9zY293MRcwFQYDVQQKDA5hbnlr
cy5jb20sIEluYzEOMAwGA1UECwwFQU5ZS1MxHjAcBgNVBAMMFWR0bHMtc2VydmVy
LmFueWtzLmNvbTCCASIwDQYJKoZIhvcNAQEBBQADggEPADCCAQoCggEBAKTMPD3H
23U6XoXnsLcjyAX+c9qyn9Rzi3PpDyJjBNQCGz94PWg64UIm0UJ5gkWxNo2iXCvt
V/eb+5JCTh1xrcA6EN0O/LN/KmNp0W0/+r6nOg8kj7u8zHGKqCg+vApIKWeuQmEe
F1VsbrVvUk9Ug6xedXcDl/V6knCLmMnPKaJnyDKTeMpEQ1oX2a7h5uJuO4SymNg5
0mC7rPFIgPtjMG2QsUCYq6GHZIALsGR0qUgaUtRLhc6h0zla0yUrp6fNEYhqq83o
o1W5UxDvUVopKDTVOMcEDgw/rG+YGd15UJW+prh7Z4fhV/oRiTxm7QvZifhTgqfm
jxeIhjqCjmYnKukCAwEAATANBgkqhkiG9w0BAQsFAAOCAQEAc02dkuC9aEZubluO
OZQOh9AtlLuyKqXtirNLzkTmolJepx9/jdFzmmZLBJGtrWzWLT8guCv7Q5SZGeRR
JKE683ipdjKqUAD5Wzh6hVSlk+nVMas2fma+bIZJeZzCnv8mZ3vg//zN3LcD+jJf
nrqWwKmc+YVfoTb99LSuifQpVxmc3T1hWl+1a7S+p+wp6vJsTwzyaiRmICbHQD9L
XUqkXBV092xOrbObfw4g8ozH2ro+lh7lhgZ2pgo5pYsh/Gg0+uAwp4yWmnXUpu0Z
vtPUDx1o0mU8KH7CNw0TWnYye2sdOl/+xmu9BGeqknbZyf+ZLJksygdDMORUJOhy
dCj5TQ==
-----END CERTIFICATE-----
